--- refresh current libart/libandroid_runtime from TV ---

--- libart around pc=0x2041a8 lr=0x2041f8 ---

zygote-symbols-post-binder/libart.so.real:     file format elf64-littleaarch64


Disassembly of section .text:

0000000000204000 <nterp_op_invoke_super>:
  204000:	f81f0336 	stur	x22, [x25, #-16]
  204004:	9128c270 	add	x16, x19, #0xa30
  204008:	d34226d1 	ubfx	x17, x22, #2, #8
  20400c:	8b111210 	add	x16, x16, x17, lsl #4
  204010:	a9400210 	ldp	x16, x0, [x16]
  204014:	eb16021f 	cmp	x16, x22
  204018:	540000c1 	b.ne	204030 <nterp_op_invoke_super+0x30>  // b.any
  20401c:	79400ac1 	ldrh	w1, [x22, #4]
  204020:	12000c21 	and	w1, w1, #0xf
  204024:	b8615ba1 	ldr	w1, [x29, w1, uxtw #2]
  204028:	34029781 	cbz	w1, 209318 <common_errNullObject>
  20402c:	14001885 	b	20a240 <NterpCommonInvokeInstance>
  204030:	aa1303e0 	mov	x0, x19
  204034:	f94003e1 	ldr	x1, [sp]
  204038:	aa1603e2 	mov	x2, x22
  20403c:	94002d35 	bl	20f510 <nterp_get_method>
  204040:	17fffff7 	b	20401c <nterp_op_invoke_super+0x1c>
	...

0000000000204080 <nterp_op_invoke_direct>:
  204080:	f81f0336 	stur	x22, [x25, #-16]
  204084:	9128c270 	add	x16, x19, #0xa30
  204088:	d34226d1 	ubfx	x17, x22, #2, #8
  20408c:	8b111210 	add	x16, x16, x17, lsl #4
  204090:	a9400210 	ldp	x16, x0, [x16]
  204094:	eb16021f 	cmp	x16, x22
  204098:	540000c1 	b.ne	2040b0 <nterp_op_invoke_direct+0x30>  // b.any
  20409c:	79400ac1 	ldrh	w1, [x22, #4]
  2040a0:	12000c21 	and	w1, w1, #0xf
  2040a4:	b8615ba1 	ldr	w1, [x29, w1, uxtw #2]
  2040a8:	34029381 	cbz	w1, 209318 <common_errNullObject>
  2040ac:	14001865 	b	20a240 <NterpCommonInvokeInstance>
  2040b0:	aa1303e0 	mov	x0, x19
  2040b4:	f94003e1 	ldr	x1, [sp]
  2040b8:	aa1603e2 	mov	x2, x22
  2040bc:	94002d15 	bl	20f510 <nterp_get_method>
  2040c0:	3607fee0 	tbz	w0, #0, 20409c <nterp_op_invoke_direct+0x1c>
  2040c4:	927ff800 	and	x0, x0, #0xfffffffffffffffe
  2040c8:	140025c8 	b	20d7e8 <NterpHandleStringInit>
	...

0000000000204100 <nterp_op_invoke_static>:
  204100:	f81f0336 	stur	x22, [x25, #-16]
  204104:	9128c270 	add	x16, x19, #0xa30
  204108:	d34226d1 	ubfx	x17, x22, #2, #8
  20410c:	8b111210 	add	x16, x16, x17, lsl #4
  204110:	a9400210 	ldp	x16, x0, [x16]
  204114:	eb16021f 	cmp	x16, x22
  204118:	54000041 	b.ne	204120 <nterp_op_invoke_static+0x20>  // b.any
  20411c:	14001481 	b	209320 <NterpCommonInvokeStatic>
  204120:	aa1303e0 	mov	x0, x19
  204124:	f94003e1 	ldr	x1, [sp]
  204128:	aa1603e2 	mov	x2, x22
  20412c:	94002cf9 	bl	20f510 <nterp_get_method>
  204130:	1400147c 	b	209320 <NterpCommonInvokeStatic>
	...

0000000000204180 <nterp_op_invoke_interface>:
  204180:	f81f0336 	stur	x22, [x25, #-16]
  204184:	9128c270 	add	x16, x19, #0xa30
  204188:	d34226d1 	ubfx	x17, x22, #2, #8
  20418c:	8b111210 	add	x16, x16, x17, lsl #4
  204190:	a9406a10 	ldp	x16, x26, [x16]
  204194:	eb16021f 	cmp	x16, x22
  204198:	54000281 	b.ne	2041e8 <nterp_op_invoke_interface+0x68>  // b.any
  20419c:	79400ac1 	ldrh	w1, [x22, #4]
  2041a0:	12000c21 	and	w1, w1, #0xf
  2041a4:	b8615ba1 	ldr	w1, [x29, w1, uxtw #2]
  2041a8:	b9400022 	ldr	w2, [x1]
  2041ac:	7200075f 	tst	w26, #0x3
  2041b0:	540000a1 	b.ne	2041c4 <nterp_op_invoke_interface+0x44>  // b.any
  2041b4:	79401f43 	ldrh	w3, [x26, #14]
  2041b8:	f9404042 	ldr	x2, [x2, #128]
  2041bc:	f8635840 	ldr	x0, [x2, w3, uxtw #3]
  2041c0:	14001ba8 	b	20b060 <NterpCommonInvokeInterface>
  2041c4:	370000ba 	tbnz	w26, #0, 2041d8 <nterp_op_invoke_interface+0x58>
  2041c8:	927ef75a 	and	x26, x26, #0xfffffffffffffffc
  2041cc:	79401b43 	ldrh	w3, [x26, #12]
  2041d0:	12001063 	and	w3, w3, #0x1f
  2041d4:	17fffff9 	b	2041b8 <nterp_op_invoke_interface+0x38>
  2041d8:	53107f5a 	lsr	w26, w26, #16
  2041dc:	11022042 	add	w2, w2, #0x88
  2041e0:	f87a5840 	ldr	x0, [x2, w26, uxtw #3]
  2041e4:	14001817 	b	20a240 <NterpCommonInvokeInstance>
  2041e8:	aa1303e0 	mov	x0, x19
  2041ec:	f94003e1 	ldr	x1, [sp]
  2041f0:	aa1603e2 	mov	x2, x22
  2041f4:	94002cc7 	bl	20f510 <nterp_get_method>
  2041f8:	aa0003fa 	mov	x26, x0
  2041fc:	17ffffe8 	b	20419c <nterp_op_invoke_interface+0x1c>

0000000000204200 <nterp_op_unused_73>:
  204200:	d4200540 	brk	#0x2a
	...

0000000000204280 <nterp_op_invoke_virtual_range>:
  204280:	f81f0336 	stur	x22, [x25, #-16]
  204284:	9128c270 	add	x16, x19, #0xa30
  204288:	d34226d1 	ubfx	x17, x22, #2, #8
  20428c:	8b111210 	add	x16, x16, x17, lsl #4
  204290:	a9400a10 	ldp	x16, x2, [x16]
  204294:	eb16021f 	cmp	x16, x22
  204298:	540000e1 	b.ne	2042b4 <nterp_op_invoke_virtual_range+0x34>  // b.any
  20429c:	79400ac1 	ldrh	w1, [x22, #4]
  2042a0:	b8615ba1 	ldr	w1, [x29, w1, uxtw #2]
  2042a4:	b9400020 	ldr	w0, [x1]
  2042a8:	11022000 	add	w0, w0, #0x88
  2042ac:	f8625800 	ldr	x0, [x0, w2, uxtw #3]
  2042b0:	140019a5 	b	20a944 <NterpCommonInvokeInstanceRange>
  2042b4:	aa1303e0 	mov	x0, x19
  2042b8:	f94003e1 	ldr	x1, [sp]
  2042bc:	aa1603e2 	mov	x2, x22
  2042c0:	94002c94 	bl	20f510 <nterp_get_method>
  2042c4:	aa0003e2 	mov	x2, x0
  2042c8:	17fffff5 	b	20429c <nterp_op_invoke_virtual_range+0x1c>
	...

--- nearest libart symbols ---
### 0x2041a8
0000000000204180 t nterp_op_invoke_interface
### 0x2041f8
0000000000204180 t nterp_op_invoke_interface

--- libandroid_runtime current patch sanity ---
0x1ca198:   1ca198:	d503201f 	nop
  1ca19c:	910083e1 	add	x1, sp, #0x20
  1ca1a0:	2a1f03e0 	mov	w0, wzr
  1ca1a4:	2a1f03e2 	mov	w2, wzr
0x1ca1b0:   1ca1b0:	52800020 	mov	w0, #0x1                   	// #1
  1ca1b4:	f94013f5 	ldr	x21, [sp, #32]
  1ca1b8:	2a0003f4 	mov	w20, w0
  1ca1bc:	b4000275 	cbz	x21, 1ca208 <android::register_com_android_internal_os_Zygote(_JNIEnv*)@@Base+0x1994>
0x1ca208:   1ca208:	d503201f 	nop
  1ca20c:	f9401748 	ldr	x8, [x26, #40]
  1ca210:	f85f83a9 	ldur	x9, [x29, #-8]
  1ca214:	eb09011f 	cmp	x8, x9
0x1ccde4:   1ccde4:	52800000 	mov	w0, #0x0                   	// #0
  1ccde8:	2a0003f7 	mov	w23, w0
  1ccdec:	4b0003f9 	neg	w25, w0
  1ccdf0:	940092f8 	bl	1f19d0 <__errno@plt>
0x1d4e80:   1d4e80:	d65f03c0 	ret
  1d4e84:	a9014ff4 	stp	x20, x19, [sp, #16]
  1d4e88:	910003fd 	mov	x29, sp
  1d4e8c:	f9400814 	ldr	x20, [x0, #16]
0x1d9afc:   1d9afc:	52800020 	mov	w0, #0x1                   	// #1
  1d9b00:	d65f03c0 	ret
  1d9b04:	9100c3fd 	add	x29, sp, #0x30
  1d9b08:	a9045ff8 	stp	x24, x23, [sp, #64]

SYMBOLIZE_ART_SEGV_DONE
